target datalayout = "e-m:e-p270:32:32-p271:32:32-p272:64:64-i64:64-i128:128-f80:128-n8:16:32:64-S128"
target triple = "x86_64-pc-linux-gnu"

%struct.ec_method_st = type { i32, i32, ptr, ptr, ptr, ptr, ptr, ptr, ptr, ptr, ptr, ptr, ptr, ptr, ptr, ptr, ptr, ptr, ptr, ptr, ptr, ptr, ptr, ptr, ptr, ptr, ptr, ptr, ptr, ptr, ptr, ptr, ptr, ptr, ptr, ptr, ptr, ptr, ptr, ptr, ptr, ptr, ptr, ptr, ptr, ptr, ptr, ptr, ptr, ptr, ptr, ptr, ptr, ptr, ptr, ptr, ptr }
%struct.ec_group_st = type { ptr, ptr, ptr, ptr, i32, i32, i32, i32, ptr, i64, ptr, [6 x i32], ptr, ptr, i32, ptr, ptr, ptr, ptr, i32, %union.anon, ptr, ptr }
%union.anon = type { ptr }

; Function Attrs: nounwind uwtable
define i32 @ossl_ec_GFp_simple_group_get_curve(ptr noundef %0, ptr noundef %1, ptr noundef %2, ptr noundef %3, ptr noundef %4) #0 {
  %6 = alloca i32, align 4
  %7 = alloca ptr, align 8
  %8 = alloca ptr, align 8
  %9 = alloca ptr, align 8
  %10 = alloca ptr, align 8
  %11 = alloca ptr, align 8
  %12 = alloca i32, align 4
  %13 = alloca ptr, align 8
  %14 = alloca i32, align 4
  store ptr %0, ptr %7, align 8, !tbaa !3
  store ptr %1, ptr %8, align 8, !tbaa !21
  store ptr %2, ptr %9, align 8, !tbaa !21
  store ptr %3, ptr %10, align 8, !tbaa !21
  store ptr %4, ptr %11, align 8, !tbaa !22
  call void @llvm.lifetime.start.p0(i64 4, ptr %12) #3
  store i32 0, ptr %12, align 4, !tbaa !24
  call void @llvm.lifetime.start.p0(i64 8, ptr %13) #3
  store ptr null, ptr %13, align 8, !tbaa !22
  %15 = load ptr, ptr %8, align 8, !tbaa !21
  %16 = icmp ne ptr %15, null
  br i1 %16, label %17, label %26

17:                                               ; preds = %5
  %18 = load ptr, ptr %8, align 8, !tbaa !21
  %19 = load ptr, ptr %7, align 8, !tbaa !3
  %20 = getelementptr inbounds nuw %struct.ec_group_st, ptr %19, i32 0, i32 10
  %21 = load ptr, ptr %20, align 8, !tbaa !8
  %22 = call ptr @BN_copy(ptr noundef %18, ptr noundef %21)
  %23 = icmp ne ptr %22, null
  br i1 %23, label %25, label %24

24:                                               ; preds = %17
  store i32 0, ptr %6, align 4
  store i32 1, ptr %14, align 4
  br label %120

25:                                               ; preds = %17
  br label %26

26:                                               ; preds = %25, %5
  %27 = load ptr, ptr %9, align 8, !tbaa !21
  %28 = icmp ne ptr %27, null
  br i1 %28, label %32, label %29

29:                                               ; preds = %26
  %30 = load ptr, ptr %10, align 8, !tbaa !21
  %31 = icmp ne ptr %30, null
  br i1 %31, label %32, label %116

32:                                               ; preds = %29, %26
  %33 = load ptr, ptr %7, align 8, !tbaa !3
  %34 = getelementptr inbounds nuw %struct.ec_group_st, ptr %33, i32 0, i32 0
  %35 = load ptr, ptr %34, align 8, !tbaa !26
  %36 = getelementptr inbounds nuw %struct.ec_method_st, ptr %35, i32 0, i32 37
  %37 = load ptr, ptr %36, align 8, !tbaa !29
  %38 = icmp ne ptr %37, null
  br i1 %38, label %39, label %90

39:                                               ; preds = %32
  %40 = load ptr, ptr %11, align 8, !tbaa !22
  %41 = icmp eq ptr %40, null
  br i1 %41, label %42, label %51

42:                                               ; preds = %39
  %43 = load ptr, ptr %7, align 8, !tbaa !3
  %44 = getelementptr inbounds nuw %struct.ec_group_st, ptr %43, i32 0, i32 21
  %45 = load ptr, ptr %44, align 8, !tbaa !25
  %46 = call ptr @BN_CTX_new_ex(ptr noundef %45)
  store ptr %46, ptr %13, align 8, !tbaa !22
  store ptr %46, ptr %11, align 8, !tbaa !22
  %47 = load ptr, ptr %11, align 8, !tbaa !22
  %48 = icmp eq ptr %47, null
  br i1 %48, label %49, label %50

49:                                               ; preds = %42
  store i32 0, ptr %6, align 4
  store i32 1, ptr %14, align 4
  br label %120

50:                                               ; preds = %42
  br label %51

51:                                               ; preds = %50, %39
  %52 = load ptr, ptr %9, align 8, !tbaa !21
  %53 = icmp ne ptr %52, null
  br i1 %53, label %54, label %70

54:                                               ; preds = %51
  %55 = load ptr, ptr %7, align 8, !tbaa !3
  %56 = getelementptr inbounds nuw %struct.ec_group_st, ptr %55, i32 0, i32 0
  %57 = load ptr, ptr %56, align 8, !tbaa !26
  %58 = getelementptr inbounds nuw %struct.ec_method_st, ptr %57, i32 0, i32 37
  %59 = load ptr, ptr %58, align 8, !tbaa !29
  %60 = load ptr, ptr %7, align 8, !tbaa !3
  %61 = load ptr, ptr %9, align 8, !tbaa !21
  %62 = load ptr, ptr %7, align 8, !tbaa !3
  %63 = getelementptr inbounds nuw %struct.ec_group_st, ptr %62, i32 0, i32 12
  %64 = load ptr, ptr %63, align 8, !tbaa !18
  %65 = load ptr, ptr %11, align 8, !tbaa !22
  %66 = call i32 %59(ptr noundef %60, ptr noundef %61, ptr noundef %64, ptr noundef %65)
  %67 = icmp ne i32 %66, 0
  br i1 %67, label %69, label %68

68:                                               ; preds = %54
  br label %117

69:                                               ; preds = %54
  br label %70

70:                                               ; preds = %69, %51
  %71 = load ptr, ptr %10, align 8, !tbaa !21
  %72 = icmp ne ptr %71, null
  br i1 %72, label %73, label %89

73:                                               ; preds = %70
  %74 = load ptr, ptr %7, align 8, !tbaa !3
  %75 = getelementptr inbounds nuw %struct.ec_group_st, ptr %74, i32 0, i32 0
  %76 = load ptr, ptr %75, align 8, !tbaa !26
  %77 = getelementptr inbounds nuw %struct.ec_method_st, ptr %76, i32 0, i32 37
  %78 = load ptr, ptr %77, align 8, !tbaa !29
  %79 = load ptr, ptr %7, align 8, !tbaa !3
  %80 = load ptr, ptr %10, align 8, !tbaa !21
  %81 = load ptr, ptr %7, align 8, !tbaa !3
  %82 = getelementptr inbounds nuw %struct.ec_group_st, ptr %81, i32 0, i32 13
  %83 = load ptr, ptr %82, align 8, !tbaa !19
  %84 = load ptr, ptr %11, align 8, !tbaa !22
  %85 = call i32 %78(ptr noundef %79, ptr noundef %80, ptr noundef %83, ptr noundef %84)
  %86 = icmp ne i32 %85, 0
  br i1 %86, label %88, label %87

87:                                               ; preds = %73
  br label %117

88:                                               ; preds = %73
  br label %89

89:                                               ; preds = %88, %70
  br label %115

90:                                               ; preds = %32
  %91 = load ptr, ptr %9, align 8, !tbaa !21
  %92 = icmp ne ptr %91, null
  br i1 %92, label %93, label %102

93:                                               ; preds = %90
  %94 = load ptr, ptr %9, align 8, !tbaa !21
  %95 = load ptr, ptr %7, align 8, !tbaa !3
  %96 = getelementptr inbounds nuw %struct.ec_group_st, ptr %95, i32 0, i32 12
  %97 = load ptr, ptr %96, align 8, !tbaa !18
  %98 = call ptr @BN_copy(ptr noundef %94, ptr noundef %97)
  %99 = icmp ne ptr %98, null
  br i1 %99, label %101, label %100

100:                                              ; preds = %93
  br label %117

101:                                              ; preds = %93
  br label %102

102:                                              ; preds = %101, %90
  %103 = load ptr, ptr %10, align 8, !tbaa !21
  %104 = icmp ne ptr %103, null
  br i1 %104, label %105, label %114

105:                                              ; preds = %102
  %106 = load ptr, ptr %10, align 8, !tbaa !21
  %107 = load ptr, ptr %7, align 8, !tbaa !3
  %108 = getelementptr inbounds nuw %struct.ec_group_st, ptr %107, i32 0, i32 13
  %109 = load ptr, ptr %108, align 8, !tbaa !19
  %110 = call ptr @BN_copy(ptr noundef %106, ptr noundef %109)
  %111 = icmp ne ptr %110, null
  br i1 %111, label %113, label %112

112:                                              ; preds = %105
  br label %117

113:                                              ; preds = %105
  br label %114

114:                                              ; preds = %113, %102
  br label %115

115:                                              ; preds = %114, %89
  br label %116

116:                                              ; preds = %115, %29
  store i32 1, ptr %12, align 4, !tbaa !24
  br label %117

117:                                              ; preds = %116, %112, %100, %87, %68
  %118 = load ptr, ptr %13, align 8, !tbaa !22
  call void @BN_CTX_free(ptr noundef %118)
  %119 = load i32, ptr %12, align 4, !tbaa !24
  store i32 %119, ptr %6, align 4
  store i32 1, ptr %14, align 4
  br label %120

120:                                              ; preds = %117, %49, %24
  call void @llvm.lifetime.end.p0(i64 8, ptr %13) #3
  call void @llvm.lifetime.end.p0(i64 4, ptr %12) #3
  %121 = load i32, ptr %6, align 4
  ret i32 %121
}