; Function Attrs: nounwind uwtable
define range(i32 0, 2) i32 @ossl_ec_GFp_simple_group_get_curve(ptr noundef %0, ptr noundef %1, ptr noundef %2, ptr noundef %3, ptr noundef %4) #1 {
  %.not = icmp eq ptr %1, null
  br i1 %.not, label %10, label %6

6:                                                ; preds = %5
  %7 = getelementptr inbounds nuw i8, ptr %0, i64 64
  %8 = load ptr, ptr %7, align 8, !tbaa !3
  %9 = tail call ptr @BN_copy(ptr noundef nonnull %1, ptr noundef %8) #4
  %.not40 = icmp eq ptr %9, null
  br i1 %.not40, label %52, label %10

10:                                               ; preds = %6, %5
  %11 = icmp ne ptr %2, null
  %12 = icmp ne ptr %3, null
  %or.cond = or i1 %11, %12
  br i1 %or.cond, label %13, label %50

13:                                               ; preds = %10
  %14 = load ptr, ptr %0, align 8, !tbaa !20
  %15 = getelementptr inbounds nuw i8, ptr %14, i64 288
  %16 = load ptr, ptr %15, align 8, !tbaa !23
  %.not41 = icmp eq ptr %16, null
  br i1 %.not41, label %40, label %17

17:                                               ; preds = %13
  %18 = icmp eq ptr %4, null
  br i1 %18, label %19, label %24

19:                                               ; preds = %17
  %20 = getelementptr inbounds nuw i8, ptr %0, i64 168
  %21 = load ptr, ptr %20, align 8, !tbaa !19
  %22 = tail call ptr @BN_CTX_new_ex(ptr noundef %21) #4
  %23 = icmp eq ptr %22, null
  br i1 %23, label %52, label %24

24:                                               ; preds = %19, %17
  %.031 = phi ptr [ %22, %19 ], [ %4, %17 ]
  %.1 = phi ptr [ %22, %19 ], [ null, %17 ]
  br i1 %11, label %25, label %32

25:                                               ; preds = %24
  %26 = load ptr, ptr %0, align 8, !tbaa !20
  %27 = getelementptr inbounds nuw i8, ptr %26, i64 288
  %28 = load ptr, ptr %27, align 8, !tbaa !23
  %29 = getelementptr inbounds nuw i8, ptr %0, i64 96
  %30 = load ptr, ptr %29, align 8, !tbaa !16
  %31 = tail call i32 %28(ptr noundef nonnull %0, ptr noundef nonnull %2, ptr noundef %30, ptr noundef nonnull %.031) #4
  %.not44 = icmp eq i32 %31, 0
  br i1 %.not44, label %51, label %32

32:                                               ; preds = %25, %24
  br i1 %12, label %33, label %50

33:                                               ; preds = %32
  %34 = load ptr, ptr %0, align 8, !tbaa !20
  %35 = getelementptr inbounds nuw i8, ptr %34, i64 288
  %36 = load ptr, ptr %35, align 8, !tbaa !23
  %37 = getelementptr inbounds nuw i8, ptr %0, i64 104
  %38 = load ptr, ptr %37, align 8, !tbaa !17
  %39 = tail call i32 %36(ptr noundef nonnull %0, ptr noundef nonnull %3, ptr noundef %38, ptr noundef nonnull %.031) #4
  %.not45 = icmp eq i32 %39, 0
  br i1 %.not45, label %51, label %50

40:                                               ; preds = %13
  br i1 %11, label %41, label %45

41:                                               ; preds = %40
  %42 = getelementptr inbounds nuw i8, ptr %0, i64 96
  %43 = load ptr, ptr %42, align 8, !tbaa !16
  %44 = tail call ptr @BN_copy(ptr noundef nonnull %2, ptr noundef %43) #4
  %.not42 = icmp eq ptr %44, null
  br i1 %.not42, label %51, label %45

45:                                               ; preds = %41, %40
  br i1 %12, label %46, label %50

46:                                               ; preds = %45
  %47 = getelementptr inbounds nuw i8, ptr %0, i64 104
  %48 = load ptr, ptr %47, align 8, !tbaa !17
  %49 = tail call ptr @BN_copy(ptr noundef nonnull %3, ptr noundef %48) #4
  %.not43 = icmp eq ptr %49, null
  br i1 %.not43, label %51, label %50

50:                                               ; preds = %33, %32, %46, %45, %10
  %.0 = phi ptr [ %.1, %33 ], [ %.1, %32 ], [ null, %46 ], [ null, %45 ], [ null, %10 ]
  br label %51

51:                                               ; preds = %46, %41, %33, %25, %50
  %.030 = phi i32 [ 1, %50 ], [ 0, %33 ], [ 0, %25 ], [ 0, %46 ], [ 0, %41 ]
  %.2 = phi ptr [ %.0, %50 ], [ %.1, %33 ], [ %.1, %25 ], [ null, %46 ], [ null, %41 ]
  tail call void @BN_CTX_free(ptr noundef %.2) #4
  br label %52

52:                                               ; preds = %19, %6, %51
  %.032 = phi i32 [ %.030, %51 ], [ 0, %6 ], [ 0, %19 ]
  ret i32 %.032
}